target datalayout = "e-m:e-p270:32:32-p271:32:32-p272:64:64-i64:64-i128:128-f80:128-n8:16:32:64-S128"
target triple = "x86_64-pc-linux-gnu"

%struct.lua_TValue = type { %union.Value, [1 x i32], i32 }
%union.Value = type { ptr }
%struct.lua_State = type { i8, i8, i8, i8, i8, i8, i8, ptr, ptr, ptr, ptr, ptr, ptr, ptr, ptr, i32, i32, i16, i16, i32, ptr, ptr, ptr, ptr, ptr }
%struct.GCheader = type { i8, i8, i8 }
%struct.global_State = type { %struct.stringtable, ptr, ptr, i8, i8, ptr, ptr, ptr, i64, i64, i32, i32, i32, [40 x ptr], [40 x ptr], ptr, ptr, ptr, [256 x i64], ptr, %struct.UpVal, [11 x ptr], [11 x ptr], [21 x ptr], %struct.lua_TValue, %struct.lua_TValue, i32, ptr, i64, [4 x i64], %struct.lua_Callbacks, %struct.lua_ExecutionCallbacks, [128 x ptr], [128 x ptr], [128 x ptr], %struct.GCStats }
%struct.stringtable = type { ptr, i32, i32 }
%struct.UpVal = type { i8, i8, i8, i8, ptr, %union.anon.3 }
%union.anon.3 = type { %struct.anon.4 }
%struct.anon.4 = type { ptr, ptr, ptr }
%struct.lua_Callbacks = type { ptr, ptr, ptr, ptr, ptr, ptr, ptr, ptr, ptr, ptr }
%struct.lua_ExecutionCallbacks = type { ptr, ptr, ptr, ptr, ptr, ptr, ptr }
%struct.GCStats = type { [32 x i32], i32, i32, i64, i64, i64, double, double, double }
%struct.LuaTable = type { i8, i8, i8, i8, i8, i8, i8, i8, i32, %union.anon.2, ptr, ptr, ptr, ptr }
%union.anon.2 = type { i32 }

@luaO_nilobject_ = external hidden global %struct.lua_TValue, align 8

; Function Attrs: alwaysinline mustprogress uwtable
define internal noundef ptr @_ZL10index2addrP9lua_Statei(ptr noundef %0, i32 noundef %1) #2 {
  %3 = alloca ptr, align 8
  %4 = alloca ptr, align 8
  %5 = alloca i32, align 4
  %6 = alloca ptr, align 8
  %7 = alloca i32, align 4
  store ptr %0, ptr %4, align 8, !tbaa !4
  store i32 %1, ptr %5, align 4, !tbaa !9
  %8 = load i32, ptr %5, align 4, !tbaa !9
  %9 = icmp sgt i32 %8, 0
  br i1 %9, label %10, label %27

10:                                               ; preds = %2
  call void @llvm.lifetime.start.p0(i64 8, ptr %6) #11
  %11 = load ptr, ptr %4, align 8, !tbaa !4
  %12 = getelementptr inbounds nuw %struct.lua_State, ptr %11, i32 0, i32 8
  %13 = load ptr, ptr %12, align 8, !tbaa !13
  %14 = load i32, ptr %5, align 4, !tbaa !9
  %15 = sub nsw i32 %14, 1
  %16 = sext i32 %15 to i64
  %17 = getelementptr inbounds %struct.lua_TValue, ptr %13, i64 %16
  store ptr %17, ptr %6, align 8, !tbaa !11
  %18 = load ptr, ptr %6, align 8, !tbaa !11
  %19 = load ptr, ptr %4, align 8, !tbaa !4
  %20 = getelementptr inbounds nuw %struct.lua_State, ptr %19, i32 0, i32 7
  %21 = load ptr, ptr %20, align 8, !tbaa !23
  %22 = icmp uge ptr %18, %21
  br i1 %22, label %23, label %24

23:                                               ; preds = %10
  store ptr @luaO_nilobject_, ptr %3, align 8
  store i32 1, ptr %7, align 4
  br label %26

24:                                               ; preds = %10
  %25 = load ptr, ptr %6, align 8, !tbaa !11
  store ptr %25, ptr %3, align 8
  store i32 1, ptr %7, align 4
  br label %26

26:                                               ; preds = %24, %23
  call void @llvm.lifetime.end.p0(i64 8, ptr %6) #11
  br label %41

27:                                               ; preds = %2
  %28 = load i32, ptr %5, align 4, !tbaa !9
  %29 = icmp sgt i32 %28, -10000
  br i1 %29, label %30, label %37

30:                                               ; preds = %27
  %31 = load ptr, ptr %4, align 8, !tbaa !4
  %32 = getelementptr inbounds nuw %struct.lua_State, ptr %31, i32 0, i32 7
  %33 = load ptr, ptr %32, align 8, !tbaa !23
  %34 = load i32, ptr %5, align 4, !tbaa !9
  %35 = sext i32 %34 to i64
  %36 = getelementptr inbounds %struct.lua_TValue, ptr %33, i64 %35
  store ptr %36, ptr %3, align 8
  br label %41

37:                                               ; preds = %27
  %38 = load ptr, ptr %4, align 8, !tbaa !4
  %39 = load i32, ptr %5, align 4, !tbaa !9
  %40 = call noundef ptr @_ZL11pseudo2addrP9lua_Statei(ptr noundef %38, i32 noundef %39)
  store ptr %40, ptr %3, align 8
  br label %41

41:                                               ; preds = %37, %30, %26
  %42 = load ptr, ptr %3, align 8
  ret ptr %42
}

; Function Attrs: mustprogress uwtable
define dso_local noundef i32 @_Z7lua_refP9lua_Statei(ptr noundef %0, i32 noundef %1) #0 {
  %3 = alloca ptr, align 8
  %4 = alloca i32, align 4
  %5 = alloca i32, align 4
  %6 = alloca ptr, align 8
  %7 = alloca ptr, align 8
  %8 = alloca ptr, align 8
  %9 = alloca ptr, align 8
  %10 = alloca ptr, align 8
  %11 = alloca ptr, align 8
  store ptr %0, ptr %3, align 8, !tbaa !4
  store i32 %1, ptr %4, align 4, !tbaa !9
  call void @llvm.lifetime.start.p0(i64 4, ptr %5) #11
  store i32 0, ptr %5, align 4, !tbaa !9
  call void @llvm.lifetime.start.p0(i64 8, ptr %6) #11
  %12 = load ptr, ptr %3, align 8, !tbaa !4
  %13 = getelementptr inbounds nuw %struct.lua_State, ptr %12, i32 0, i32 9
  %14 = load ptr, ptr %13, align 8, !tbaa !33
  store ptr %14, ptr %6, align 8, !tbaa !50
  call void @llvm.lifetime.start.p0(i64 8, ptr %7) #11
  %15 = load ptr, ptr %3, align 8, !tbaa !4
  %16 = load i32, ptr %4, align 4, !tbaa !9
  %17 = call noundef ptr @_ZL10index2addrP9lua_Statei(ptr noundef %15, i32 noundef %16)
  store ptr %17, ptr %7, align 8, !tbaa !11
  %18 = load ptr, ptr %7, align 8, !tbaa !11
  %19 = getelementptr inbounds nuw %struct.lua_TValue, ptr %18, i32 0, i32 2
  %20 = load i32, ptr %19, align 4, !tbaa !49
  %21 = icmp eq i32 %20, 0
  br i1 %21, label %91, label %22

22:                                               ; preds = %2
  call void @llvm.lifetime.start.p0(i64 8, ptr %8) #11
  %23 = load ptr, ptr %3, align 8, !tbaa !4
  %24 = getelementptr inbounds nuw %struct.lua_State, ptr %23, i32 0, i32 9
  %25 = load ptr, ptr %24, align 8, !tbaa !33
  %26 = getelementptr inbounds nuw %struct.global_State, ptr %25, i32 0, i32 25
  %27 = getelementptr inbounds nuw %struct.lua_TValue, ptr %26, i32 0, i32 0
  %28 = load ptr, ptr %27, align 8, !tbaa !25
  store ptr %28, ptr %8, align 8, !tbaa !92
  %29 = load ptr, ptr %6, align 8, !tbaa !50
  %30 = getelementptr inbounds nuw %struct.global_State, ptr %29, i32 0, i32 26
  %31 = load i32, ptr %30, align 8, !tbaa !137
  %32 = icmp ne i32 %31, 0
  br i1 %32, label %33, label %37

33:                                               ; preds = %22
  %34 = load ptr, ptr %6, align 8, !tbaa !50
  %35 = getelementptr inbounds nuw %struct.global_State, ptr %34, i32 0, i32 26
  %36 = load i32, ptr %35, align 8, !tbaa !137
  store i32 %36, ptr %5, align 4, !tbaa !9
  br label %42

37:                                               ; preds = %22
  %38 = load ptr, ptr %8, align 8, !tbaa !92
  %39 = call noundef i32 @_Z9luaH_getnP8LuaTable(ptr noundef %38)
  store i32 %39, ptr %5, align 4, !tbaa !9
  %40 = load i32, ptr %5, align 4, !tbaa !9
  %41 = add nsw i32 %40, 1
  store i32 %41, ptr %5, align 4, !tbaa !9
  br label %42

42:                                               ; preds = %37, %33
  call void @llvm.lifetime.start.p0(i64 8, ptr %9) #11
  %43 = load ptr, ptr %3, align 8, !tbaa !4
  %44 = load ptr, ptr %8, align 8, !tbaa !92
  %45 = load i32, ptr %5, align 4, !tbaa !9
  %46 = call noundef ptr @_Z11luaH_setnumP9lua_StateP8LuaTablei(ptr noundef %43, ptr noundef %44, i32 noundef %45)
  store ptr %46, ptr %9, align 8, !tbaa !11
  %47 = load ptr, ptr %6, align 8, !tbaa !50
  %48 = getelementptr inbounds nuw %struct.global_State, ptr %47, i32 0, i32 26
  %49 = load i32, ptr %48, align 8, !tbaa !137
  %50 = icmp ne i32 %49, 0
  br i1 %50, label %51, label %58

51:                                               ; preds = %42
  %52 = load ptr, ptr %9, align 8, !tbaa !11
  %53 = getelementptr inbounds nuw %struct.lua_TValue, ptr %52, i32 0, i32 0
  %54 = load double, ptr %53, align 8, !tbaa !25
  %55 = fptosi double %54 to i32
  %56 = load ptr, ptr %6, align 8, !tbaa !50
  %57 = getelementptr inbounds nuw %struct.global_State, ptr %56, i32 0, i32 26
  store i32 %55, ptr %57, align 8, !tbaa !137
  br label %58

58:                                               ; preds = %51, %42
  call void @llvm.lifetime.start.p0(i64 8, ptr %10) #11
  %59 = load ptr, ptr %7, align 8, !tbaa !11
  store ptr %59, ptr %10, align 8, !tbaa !11
  call void @llvm.lifetime.start.p0(i64 8, ptr %11) #11
  %60 = load ptr, ptr %9, align 8, !tbaa !11
  store ptr %60, ptr %11, align 8, !tbaa !11
  %61 = load ptr, ptr %10, align 8, !tbaa !11
  %62 = load ptr, ptr %11, align 8, !tbaa !11
  call void @llvm.memcpy.p0.p0.i64(ptr align 8 %62, ptr align 8 %61, i64 16, i1 false), !tbaa.struct !24
  call void @llvm.lifetime.end.p0(i64 8, ptr %11) #11
  call void @llvm.lifetime.end.p0(i64 8, ptr %10) #11
  %63 = load ptr, ptr %7, align 8, !tbaa !11
  %64 = getelementptr inbounds nuw %struct.lua_TValue, ptr %63, i32 0, i32 2
  %65 = load i32, ptr %64, align 4, !tbaa !49
  %66 = icmp sge i32 %65, 5
  br i1 %66, label %67, label %90

67:                                               ; preds = %58
  %68 = load ptr, ptr %8, align 8, !tbaa !92
  %69 = getelementptr inbounds %struct.LuaTable, ptr %68, i64 0
  %70 = getelementptr inbounds nuw %struct.GCheader, ptr %69, i32 0, i32 1
  %71 = load i8, ptr %70, align 1, !tbaa !25
  %72 = zext i8 %71 to i32
  %73 = and i32 %72, 4
  %74 = icmp ne i32 %73, 0
  br i1 %74, label %75, label %90

75:                                               ; preds = %67
  %76 = load ptr, ptr %7, align 8, !tbaa !11
  %77 = getelementptr inbounds nuw %struct.lua_TValue, ptr %76, i32 0, i32 0
  %78 = load ptr, ptr %77, align 8, !tbaa !25
  %79 = getelementptr inbounds nuw %struct.GCheader, ptr %78, i32 0, i32 1
  %80 = load i8, ptr %79, align 1, !tbaa !25
  %81 = zext i8 %80 to i32
  %82 = and i32 %81, 3
  %83 = icmp ne i32 %82, 0
  br i1 %83, label %84, label %90

84:                                               ; preds = %75
  %85 = load ptr, ptr %3, align 8, !tbaa !4
  %86 = load ptr, ptr %8, align 8, !tbaa !92
  %87 = load ptr, ptr %7, align 8, !tbaa !11
  %88 = getelementptr inbounds nuw %struct.lua_TValue, ptr %87, i32 0, i32 0
  %89 = load ptr, ptr %88, align 8, !tbaa !25
  call void @_Z17luaC_barriertableP9lua_StateP8LuaTableP8GCObject(ptr noundef %85, ptr noundef %86, ptr noundef %89)
  br label %90

90:                                               ; preds = %84, %75, %67, %58
  call void @llvm.lifetime.end.p0(i64 8, ptr %9) #11
  call void @llvm.lifetime.end.p0(i64 8, ptr %8) #11
  br label %91

91:                                               ; preds = %90, %2
  %92 = load i32, ptr %5, align 4, !tbaa !9
  call void @llvm.lifetime.end.p0(i64 8, ptr %7) #11
  call void @llvm.lifetime.end.p0(i64 8, ptr %6) #11
  call void @llvm.lifetime.end.p0(i64 4, ptr %5) #11
  ret i32 %92
}