; Function Attrs: mustprogress uwtable
define dso_local noundef i32 @_Z7lua_refP9lua_Statei(ptr noundef %0, i32 noundef %1) local_unnamed_addr #3 {
  %3 = getelementptr inbounds nuw i8, ptr %0, i64 24
  %4 = load ptr, ptr %3, align 8, !tbaa !30
  %5 = icmp sgt i32 %1, 0
  br i1 %5, label %6, label %14

6:                                                ; preds = %2
  %7 = getelementptr inbounds nuw i8, ptr %0, i64 16
  %8 = load ptr, ptr %7, align 8, !tbaa !4
  %9 = zext nneg i32 %1 to i64
  %10 = getelementptr %struct.lua_TValue, ptr %8, i64 %9
  %11 = getelementptr i8, ptr %10, i64 -16
  %12 = getelementptr inbounds nuw i8, ptr %0, i64 8
  %13 = load ptr, ptr %12, align 8, !tbaa !19
  %.not.i = icmp ult ptr %11, %13
  %.luaO_nilobject_.i = select i1 %.not.i, ptr %11, ptr @luaO_nilobject_
  br label %_ZL10index2addrP9lua_Statei.exit

14:                                               ; preds = %2
  %15 = icmp sgt i32 %1, -10000
  br i1 %15, label %16, label %21

16:                                               ; preds = %14
  %17 = getelementptr inbounds nuw i8, ptr %0, i64 8
  %18 = load ptr, ptr %17, align 8, !tbaa !19
  %19 = sext i32 %1 to i64
  %20 = getelementptr inbounds %struct.lua_TValue, ptr %18, i64 %19
  br label %_ZL10index2addrP9lua_Statei.exit

21:                                               ; preds = %14
  %22 = tail call fastcc noundef ptr @_ZL11pseudo2addrP9lua_Statei(ptr noundef nonnull %0, i32 noundef %1)
  br label %_ZL10index2addrP9lua_Statei.exit

_ZL10index2addrP9lua_Statei.exit:                 ; preds = %6, %16, %21
  %.1.i = phi ptr [ %.luaO_nilobject_.i, %6 ], [ %20, %16 ], [ %22, %21 ]
  %23 = getelementptr inbounds nuw i8, ptr %.1.i, i64 12
  %24 = load i32, ptr %23, align 4, !tbaa !47
  %25 = icmp eq i32 %24, 0
  br i1 %25, label %54, label %26

26:                                               ; preds = %_ZL10index2addrP9lua_Statei.exit
  %27 = load ptr, ptr %3, align 8, !tbaa !30
  %28 = getelementptr inbounds nuw i8, ptr %27, i64 3216
  %29 = load ptr, ptr %28, align 8, !tbaa !21
  %30 = getelementptr inbounds nuw i8, ptr %4, i64 3232
  %31 = load i32, ptr %30, align 8, !tbaa !110
  %.not = icmp eq i32 %31, 0
  br i1 %.not, label %32, label %35

32:                                               ; preds = %26
  %33 = tail call noundef i32 @_Z9luaH_getnP8LuaTable(ptr noundef %29)
  %34 = add nsw i32 %33, 1
  br label %35

35:                                               ; preds = %26, %32
  %.1 = phi i32 [ %34, %32 ], [ %31, %26 ]
  %36 = tail call noundef ptr @_Z11luaH_setnumP9lua_StateP8LuaTablei(ptr noundef nonnull %0, ptr noundef %29, i32 noundef %.1)
  %37 = load i32, ptr %30, align 8, !tbaa !110
  %.not26 = icmp eq i32 %37, 0
  br i1 %.not26, label %41, label %38

38:                                               ; preds = %35
  %39 = load double, ptr %36, align 8, !tbaa !21
  %40 = fptosi double %39 to i32
  store i32 %40, ptr %30, align 8, !tbaa !110
  br label %41

41:                                               ; preds = %38, %35
  tail call void @llvm.memcpy.p0.p0.i64(ptr noundef nonnull align 8 dereferenceable(16) %36, ptr noundef nonnull align 8 dereferenceable(16) %.1.i, i64 16, i1 false), !tbaa.struct !20
  %42 = load i32, ptr %23, align 4, !tbaa !47
  %43 = icmp sgt i32 %42, 4
  br i1 %43, label %44, label %54

44:                                               ; preds = %41
  %45 = getelementptr inbounds nuw i8, ptr %29, i64 1
  %46 = load i8, ptr %45, align 1, !tbaa !21
  %47 = and i8 %46, 4
  %.not27 = icmp eq i8 %47, 0
  br i1 %.not27, label %54, label %48

48:                                               ; preds = %44
  %49 = load ptr, ptr %.1.i, align 8, !tbaa !21
  %50 = getelementptr inbounds nuw i8, ptr %49, i64 1
  %51 = load i8, ptr %50, align 1, !tbaa !21
  %52 = and i8 %51, 3
  %.not28 = icmp eq i8 %52, 0
  br i1 %.not28, label %54, label %53

53:                                               ; preds = %48
  tail call void @_Z17luaC_barriertableP9lua_StateP8LuaTableP8GCObject(ptr noundef nonnull %0, ptr noundef nonnull %29, ptr noundef nonnull %49)
  br label %54

54:                                               ; preds = %41, %44, %48, %53, %_ZL10index2addrP9lua_Statei.exit
  %.0 = phi i32 [ 0, %_ZL10index2addrP9lua_Statei.exit ], [ %.1, %53 ], [ %.1, %48 ], [ %.1, %44 ], [ %.1, %41 ]
  ret i32 %.0
}